; Function Attrs: nounwind sspstrong uwtable
define dso_local void @vhost_net_save_acked_features(ptr noundef %nc) local_unnamed_addr #0 {
entry:
  %0 = load ptr, ptr %nc, align 8
  %1 = load i32, ptr %0, align 8
  %cmp = icmp eq i32 %1, 12
  br i1 %cmp, label %if.then, label %if.end

if.then:                                          ; preds = %entry
  tail call void @vhost_user_save_acked_features(ptr noundef nonnull %nc) #11
  br label %if.end

if.end:                                           ; preds = %if.then, %entry
  ret void
}